; ModuleID = '37/1514.c'
source_filename = "37/1514.c"
target datalayout = "e-m:e-p270:32:32-p271:32:32-p272:64:64-i64:64-f80:128-n8:16:32:64-S128"
target triple = "x86_64-pc-linux-gnu"

@.str = private unnamed_addr constant [3 x i8] c"%d\00", align 1
@.str.1 = private unnamed_addr constant [3 x i8] c"%s\00", align 1
@.str.2 = private unnamed_addr constant [4 x i8] c"no\0A\00", align 1
@.str.3 = private unnamed_addr constant [4 x i8] c"%c\0A\00", align 1

; Function Attrs: noinline nounwind uwtable
define dso_local i32 @main() #0 {
  %1 = alloca i32, align 4
  %2 = alloca i32, align 4
  %3 = alloca i32, align 4
  %4 = alloca [100000 x i8], align 16
  %5 = alloca [1000 x i8], align 16
  %6 = alloca i32, align 4
  %7 = alloca i32, align 4
  %8 = alloca i32, align 4
  %9 = alloca i32, align 4
  store i32 0, i32* %1, align 4
  %10 = call i32 (i8*, ...) @__isoc99_scanf(i8* getelementptr inbounds ([3 x i8], [3 x i8]* @.str, i64 0, i64 0), i32* %2)
  store i32 0, i32* %6, align 4
  br label %11

11:                                               ; preds = %75, %0
  %12 = load i32, i32* %6, align 4
  %13 = load i32, i32* %2, align 4
  %14 = icmp slt i32 %12, %13
  br i1 %14, label %15, label %78

15:                                               ; preds = %11
  %16 = getelementptr inbounds [100000 x i8], [100000 x i8]* %4, i64 0, i64 0
  %17 = call i32 (i8*, ...) @__isoc99_scanf(i8* getelementptr inbounds ([3 x i8], [3 x i8]* @.str.1, i64 0, i64 0), i8* %16)
  store i32 0, i32* %7, align 4
  br label %18

18:                                               ; preds = %64, %15
  %19 = load i32, i32* %7, align 4
  %20 = sext i32 %19 to i64
  %21 = getelementptr inbounds [100000 x i8], [100000 x i8]* %4, i64 0, i64 0
  %22 = call i64 @strlen(i8* %21) #3
  %23 = icmp ult i64 %20, %22
  br i1 %23, label %24, label %67

24:                                               ; preds = %18
  store i32 1, i32* %3, align 4
  store i32 0, i32* %8, align 4
  br label %25

25:                                               ; preds = %49, %24
  %26 = load i32, i32* %8, align 4
  %27 = sext i32 %26 to i64
  %28 = getelementptr inbounds [100000 x i8], [100000 x i8]* %4, i64 0, i64 0
  %29 = call i64 @strlen(i8* %28) #3
  %30 = icmp ult i64 %27, %29
  br i1 %30, label %31, label %52

31:                                               ; preds = %25
  %32 = load i32, i32* %8, align 4
  %33 = sext i32 %32 to i64
  %34 = getelementptr inbounds [100000 x i8], [100000 x i8]* %4, i64 0, i64 %33
  %35 = load i8, i8* %34, align 1
  %36 = sext i8 %35 to i32
  %37 = load i32, i32* %7, align 4
  %38 = sext i32 %37 to i64
  %39 = getelementptr inbounds [100000 x i8], [100000 x i8]* %4, i64 0, i64 %38
  %40 = load i8, i8* %39, align 1
  %41 = sext i8 %40 to i32
  %42 = icmp eq i32 %36, %41
  br i1 %42, label %43, label %48

43:                                               ; preds = %31
  %44 = load i32, i32* %8, align 4
  %45 = load i32, i32* %7, align 4
  %46 = icmp ne i32 %44, %45
  br i1 %46, label %47, label %48

47:                                               ; preds = %43
  store i32 0, i32* %3, align 4
  br label %52

48:                                               ; preds = %43, %31
  br label %49

49:                                               ; preds = %48
  %50 = load i32, i32* %8, align 4
  %51 = add nsw i32 %50, 1
  store i32 %51, i32* %8, align 4
  br label %25

52:                                               ; preds = %47, %25
  %53 = load i32, i32* %3, align 4
  %54 = icmp eq i32 %53, 1
  br i1 %54, label %55, label %63

55:                                               ; preds = %52
  %56 = load i32, i32* %7, align 4
  %57 = sext i32 %56 to i64
  %58 = getelementptr inbounds [100000 x i8], [100000 x i8]* %4, i64 0, i64 %57
  %59 = load i8, i8* %58, align 1
  %60 = load i32, i32* %6, align 4
  %61 = sext i32 %60 to i64
  %62 = getelementptr inbounds [1000 x i8], [1000 x i8]* %5, i64 0, i64 %61
  store i8 %59, i8* %62, align 1
  br label %67

63:                                               ; preds = %52
  br label %64

64:                                               ; preds = %63
  %65 = load i32, i32* %7, align 4
  %66 = add nsw i32 %65, 1
  store i32 %66, i32* %7, align 4
  br label %18

67:                                               ; preds = %55, %18
  %68 = load i32, i32* %3, align 4
  %69 = icmp eq i32 %68, 0
  br i1 %69, label %70, label %74

70:                                               ; preds = %67
  %71 = load i32, i32* %6, align 4
  %72 = sext i32 %71 to i64
  %73 = getelementptr inbounds [1000 x i8], [1000 x i8]* %5, i64 0, i64 %72
  store i8 48, i8* %73, align 1
  br label %74

74:                                               ; preds = %70, %67
  br label %75

75:                                               ; preds = %74
  %76 = load i32, i32* %6, align 4
  %77 = add nsw i32 %76, 1
  store i32 %77, i32* %6, align 4
  br label %11

78:                                               ; preds = %11
  store i32 0, i32* %9, align 4
  br label %79

79:                                               ; preds = %100, %78
  %80 = load i32, i32* %9, align 4
  %81 = load i32, i32* %2, align 4
  %82 = icmp slt i32 %80, %81
  br i1 %82, label %83, label %103

83:                                               ; preds = %79
  %84 = load i32, i32* %9, align 4
  %85 = sext i32 %84 to i64
  %86 = getelementptr inbounds [1000 x i8], [1000 x i8]* %5, i64 0, i64 %85
  %87 = load i8, i8* %86, align 1
  %88 = sext i8 %87 to i32
  %89 = icmp eq i32 %88, 48
  br i1 %89, label %90, label %92

90:                                               ; preds = %83
  %91 = call i32 (i8*, ...) @printf(i8* getelementptr inbounds ([4 x i8], [4 x i8]* @.str.2, i64 0, i64 0))
  br label %99

92:                                               ; preds = %83
  %93 = load i32, i32* %9, align 4
  %94 = sext i32 %93 to i64
  %95 = getelementptr inbounds [1000 x i8], [1000 x i8]* %5, i64 0, i64 %94
  %96 = load i8, i8* %95, align 1
  %97 = sext i8 %96 to i32
  %98 = call i32 (i8*, ...) @printf(i8* getelementptr inbounds ([4 x i8], [4 x i8]* @.str.3, i64 0, i64 0), i32 %97)
  br label %99

99:                                               ; preds = %92, %90
  br label %100

100:                                              ; preds = %99
  %101 = load i32, i32* %9, align 4
  %102 = add nsw i32 %101, 1
  store i32 %102, i32* %9, align 4
  br label %79

103:                                              ; preds = %79
  ret i32 0
}

declare dso_local i32 @__isoc99_scanf(i8*, ...) #1

; Function Attrs: nounwind readonly
declare dso_local i64 @strlen(i8*) #2

declare dso_local i32 @printf(i8*, ...) #1


!llvm.module.flags = !{!0}
!llvm.ident = !{!1}

!0 = !{i32 1, !"wchar_size", i32 4}
!1 = !{!"clang version 10.0.0-4ubuntu1 "}
