; ModuleID = 'source-C-CXX/36/1514.c'
source_filename = "source-C-CXX/36/1514.c"
target datalayout = "e-m:e-p270:32:32-p271:32:32-p272:64:64-i64:64-f80:128-n8:16:32:64-S128"
target triple = "x86_64-pc-linux-gnu"

@.str = private unnamed_addr constant [3 x i8] c"%d\00", align 1
@.str.1 = private unnamed_addr constant [3 x i8] c"%s\00", align 1
@.str.3 = private unnamed_addr constant [4 x i8] c"%c\0A\00", align 1
@str = private unnamed_addr constant [3 x i8] c"no\00", align 1

; Function Attrs: nofree nounwind sspstrong uwtable
define dso_local i32 @main() local_unnamed_addr #0 {
  %1 = alloca i32, align 4
  %2 = alloca [100000 x i8], align 16
  %3 = alloca [1000 x i8], align 16
  %4 = bitcast i32* %1 to i8*
  call void @llvm.lifetime.start.p0i8(i64 4, i8* nonnull %4) #5
  %5 = getelementptr inbounds [100000 x i8], [100000 x i8]* %2, i64 0, i64 0
  call void @llvm.lifetime.start.p0i8(i64 100000, i8* nonnull %5) #5
  %6 = getelementptr inbounds [1000 x i8], [1000 x i8]* %3, i64 0, i64 0
  call void @llvm.lifetime.start.p0i8(i64 1000, i8* nonnull %6) #5
  %7 = call i32 (i8*, ...) @__isoc99_scanf(i8* getelementptr inbounds ([3 x i8], [3 x i8]* @.str, i64 0, i64 0), i32* nonnull %1)
  %8 = load i32, i32* %1, align 4, !tbaa !5
  %9 = icmp sgt i32 %8, 0
  br i1 %9, label %12, label %51

10:                                               ; preds = %45
  %11 = icmp sgt i32 %48, 0
  br i1 %11, label %52, label %51

12:                                               ; preds = %0, %45
  %13 = phi i64 [ %47, %45 ], [ 0, %0 ]
  %14 = phi i32 [ %46, %45 ], [ undef, %0 ]
  %15 = call i32 (i8*, ...) @__isoc99_scanf(i8* getelementptr inbounds ([3 x i8], [3 x i8]* @.str.1, i64 0, i64 0), i8* nonnull %5)
  %16 = call i64 @strlen(i8* noundef nonnull %5) #6
  %17 = icmp eq i64 %16, 0
  br i1 %17, label %39, label %18

18:                                               ; preds = %12, %36
  %19 = phi i64 [ %37, %36 ], [ 0, %12 ]
  %20 = getelementptr inbounds [100000 x i8], [100000 x i8]* %2, i64 0, i64 %19
  %21 = load i8, i8* %20, align 1, !tbaa !9
  br label %24

22:                                               ; preds = %24
  %23 = icmp eq i64 %31, %16
  br i1 %23, label %32, label %24, !llvm.loop !10

24:                                               ; preds = %18, %22
  %25 = phi i64 [ 0, %18 ], [ %31, %22 ]
  %26 = getelementptr inbounds [100000 x i8], [100000 x i8]* %2, i64 0, i64 %25
  %27 = load i8, i8* %26, align 1, !tbaa !9
  %28 = icmp ne i8 %27, %21
  %29 = icmp eq i64 %25, %19
  %30 = select i1 %28, i1 true, i1 %29
  %31 = add nuw i64 %25, 1
  br i1 %30, label %22, label %36

32:                                               ; preds = %22
  %33 = and i64 %19, 4294967295
  %34 = getelementptr inbounds [100000 x i8], [100000 x i8]* %2, i64 0, i64 %33
  %35 = load i8, i8* %34, align 1, !tbaa !9
  br label %41

36:                                               ; preds = %24
  %37 = add nuw i64 %19, 1
  %38 = icmp eq i64 %37, %16
  br i1 %38, label %41, label %18, !llvm.loop !12

39:                                               ; preds = %12
  %40 = icmp eq i32 %14, 0
  br i1 %40, label %41, label %45

41:                                               ; preds = %36, %39, %32
  %42 = phi i8 [ %35, %32 ], [ 48, %39 ], [ 48, %36 ]
  %43 = phi i32 [ 1, %32 ], [ 0, %39 ], [ 0, %36 ]
  %44 = getelementptr inbounds [1000 x i8], [1000 x i8]* %3, i64 0, i64 %13
  store i8 %42, i8* %44, align 1, !tbaa !9
  br label %45

45:                                               ; preds = %41, %39
  %46 = phi i32 [ %14, %39 ], [ %43, %41 ]
  %47 = add nuw nsw i64 %13, 1
  %48 = load i32, i32* %1, align 4, !tbaa !5
  %49 = sext i32 %48 to i64
  %50 = icmp slt i64 %47, %49
  br i1 %50, label %12, label %10, !llvm.loop !13

51:                                               ; preds = %62, %0, %10
  call void @llvm.lifetime.end.p0i8(i64 1000, i8* nonnull %6) #5
  call void @llvm.lifetime.end.p0i8(i64 100000, i8* nonnull %5) #5
  call void @llvm.lifetime.end.p0i8(i64 4, i8* nonnull %4) #5
  ret i32 0

52:                                               ; preds = %10, %62
  %53 = phi i64 [ %63, %62 ], [ 0, %10 ]
  %54 = getelementptr inbounds [1000 x i8], [1000 x i8]* %3, i64 0, i64 %53
  %55 = load i8, i8* %54, align 1, !tbaa !9
  %56 = icmp eq i8 %55, 48
  br i1 %56, label %57, label %59

57:                                               ; preds = %52
  %58 = call i32 @puts(i8* nonnull dereferenceable(1) getelementptr inbounds ([3 x i8], [3 x i8]* @str, i64 0, i64 0))
  br label %62

59:                                               ; preds = %52
  %60 = sext i8 %55 to i32
  %61 = call i32 (i8*, ...) @printf(i8* nonnull dereferenceable(1) getelementptr inbounds ([4 x i8], [4 x i8]* @.str.3, i64 0, i64 0), i32 %60)
  br label %62

62:                                               ; preds = %57, %59
  %63 = add nuw nsw i64 %53, 1
  %64 = load i32, i32* %1, align 4, !tbaa !5
  %65 = sext i32 %64 to i64
  %66 = icmp slt i64 %63, %65
  br i1 %66, label %52, label %51, !llvm.loop !14
}

; Function Attrs: argmemonly mustprogress nofree nosync nounwind willreturn
declare void @llvm.lifetime.start.p0i8(i64 immarg, i8* nocapture) #1

; Function Attrs: nofree nounwind
declare noundef i32 @__isoc99_scanf(i8* nocapture noundef readonly, ...) local_unnamed_addr #2

; Function Attrs: argmemonly mustprogress nofree nounwind readonly willreturn
declare i64 @strlen(i8* nocapture) local_unnamed_addr #3

; Function Attrs: argmemonly mustprogress nofree nosync nounwind willreturn
declare void @llvm.lifetime.end.p0i8(i64 immarg, i8* nocapture) #1

; Function Attrs: nofree nounwind
declare noundef i32 @printf(i8* nocapture noundef readonly, ...) local_unnamed_addr #2

; Function Attrs: nofree nounwind
declare noundef i32 @puts(i8* nocapture noundef readonly) local_unnamed_addr #4


!llvm.module.flags = !{!0, !1, !2, !3}
!llvm.ident = !{!4}

!0 = !{i32 1, !"wchar_size", i32 4}
!1 = !{i32 7, !"PIC Level", i32 2}
!2 = !{i32 7, !"PIE Level", i32 2}
!3 = !{i32 7, !"uwtable", i32 1}
!4 = !{!"clang version 13.0.0"}
!5 = !{!6, !6, i64 0}
!6 = !{!"int", !7, i64 0}
!7 = !{!"omnipotent char", !8, i64 0}
!8 = !{!"Simple C/C++ TBAA"}
!9 = !{!7, !7, i64 0}
!10 = distinct !{!10, !11}
!11 = !{!"llvm.loop.mustprogress"}
!12 = distinct !{!12, !11}
!13 = distinct !{!13, !11}
!14 = distinct !{!14, !11}
